; Function Attrs: mustprogress nofree norecurse nosync nounwind willreturn memory(write, argmem: readwrite, inaccessiblemem: none) uwtable
define void @_ZN14debug_module_t10proc_resetEj(ptr noundef nonnull readonly align 8 captures(none) dereferenceable(1372) %0, i32 noundef %1) local_unnamed_addr #17 align 2 {
  %3 = getelementptr inbounds nuw i8, ptr %0, i64 128
  %4 = zext i32 %1 to i64
  %5 = load ptr, ptr %3, align 8, !tbaa !49
  %6 = getelementptr inbounds nuw %struct.hart_debug_state_t, ptr %5, i64 %4
  %7 = getelementptr inbounds nuw i8, ptr %6, i64 2
  store i8 1, ptr %7, align 1, !tbaa !268
  store i8 0, ptr %6, align 1, !tbaa !197
  %8 = getelementptr inbounds nuw i8, ptr %6, i64 3
  store i8 0, ptr %8, align 1, !tbaa !199
  ret void
}